; Function Attrs: null_pointer_is_valid sspstrong uwtable
define internal void @dissect_r3_cmd_clearnvram(ptr noundef %0, i32 noundef %1, i32 %2, ptr readnone captures(none) %3, ptr noundef %4) #0 {
  %6 = load i32, ptr @hf_r3_commandlength, align 4
  %7 = tail call ptr @proto_tree_add_item(ptr noundef %4, i32 noundef %6, ptr noundef %0, i32 noundef %1, i32 noundef 1, i32 noundef -2147483648)
  %8 = load i32, ptr @hf_r3_command, align 4
  %9 = add i32 %1, 1
  %10 = tail call ptr @proto_tree_add_item(ptr noundef %4, i32 noundef %8, ptr noundef %0, i32 noundef %9, i32 noundef 1, i32 noundef -2147483648)
  %11 = add i32 %1, 2
  %12 = load i32, ptr @hf_r3_nvramclearoptions, align 4
  %13 = load i32, ptr @ett_r3clearnvram, align 4
  %14 = tail call ptr @proto_tree_add_bitmask(ptr noundef %4, ptr noundef %0, i32 noundef %11, i32 noundef %12, i32 noundef %13, ptr noundef nonnull @r3_nvramclearoptions, i32 noundef -2147483648)
  ret void
}